; Function Attrs: mustprogress nounwind uwtable
define internal noundef zeroext i1 @_ZN12_GLOBAL__N_125ExplicitRewriteDescriptorILN4llvm14SymbolRewriter17RewriteDescriptor4TypeE3ENS1_11GlobalAliasEXadL_ZNKS1_6Module13getNamedAliasENS1_9StringRefEEEE15performOnModuleERS6_(ptr noundef nonnull align 8 dereferenceable(80) %0, ptr noundef nonnull align 8 dereferenceable(857) %1) unnamed_addr #0 align 2 {
  %3 = alloca %"class.llvm::Twine", align 8
  %4 = getelementptr inbounds nuw i8, ptr %0, i64 16
  %5 = tail call noundef ptr @_ZNKSt7__cxx1112basic_stringIcSt11char_traitsIcESaIcEE4dataEv(ptr noundef nonnull align 8 dereferenceable(32) %4) #16
  %6 = tail call noundef i64 @_ZNKSt7__cxx1112basic_stringIcSt11char_traitsIcESaIcEE6lengthEv(ptr noundef nonnull align 8 dereferenceable(32) %4) #16
  %7 = tail call noundef ptr @_ZNK4llvm6Module13getNamedAliasENS_9StringRefE(ptr noundef nonnull align 8 dereferenceable(857) %1, ptr %5, i64 %6) #16
  %.not = icmp ne ptr %7, null
  br i1 %.not, label %8, label %20

8:                                                ; preds = %2
  %9 = load i8, ptr %7, align 8
  switch i8 %9, label %_ZN4llvm8dyn_castINS_12GlobalObjectENS_11GlobalAliasEEEDcPT0_.exit.thread [
    i8 0, label %_ZN4llvm8dyn_castINS_12GlobalObjectENS_11GlobalAliasEEEDcPT0_.exit
    i8 3, label %_ZN4llvm8dyn_castINS_12GlobalObjectENS_11GlobalAliasEEEDcPT0_.exit
    i8 2, label %_ZN4llvm8dyn_castINS_12GlobalObjectENS_11GlobalAliasEEEDcPT0_.exit
  ]

_ZN4llvm8dyn_castINS_12GlobalObjectENS_11GlobalAliasEEEDcPT0_.exit: ; preds = %8, %8, %8
  %10 = getelementptr inbounds nuw i8, ptr %0, i64 48
  tail call fastcc void @_ZL13rewriteComdatRN4llvm6ModuleEPNS_12GlobalObjectERKNSt7__cxx1112basic_stringIcSt11char_traitsIcESaIcEEESB_(ptr noundef nonnull align 8 dereferenceable(857) %1, ptr noundef nonnull %7, ptr noundef nonnull align 8 dereferenceable(32) %4, ptr noundef nonnull align 8 dereferenceable(32) %10)
  br label %_ZN4llvm8dyn_castINS_12GlobalObjectENS_11GlobalAliasEEEDcPT0_.exit.thread

_ZN4llvm8dyn_castINS_12GlobalObjectENS_11GlobalAliasEEEDcPT0_.exit.thread: ; preds = %8, %_ZN4llvm8dyn_castINS_12GlobalObjectENS_11GlobalAliasEEEDcPT0_.exit
  %11 = getelementptr inbounds nuw i8, ptr %0, i64 48
  %12 = tail call noundef ptr @_ZNKSt7__cxx1112basic_stringIcSt11char_traitsIcESaIcEE4dataEv(ptr noundef nonnull align 8 dereferenceable(32) %11) #16
  %13 = tail call noundef i64 @_ZNKSt7__cxx1112basic_stringIcSt11char_traitsIcESaIcEE6lengthEv(ptr noundef nonnull align 8 dereferenceable(32) %11) #16
  %14 = tail call noundef ptr @_ZNK4llvm6Module13getNamedAliasENS_9StringRefE(ptr noundef nonnull align 8 dereferenceable(857) %1, ptr %12, i64 %13) #16
  %.not16 = icmp eq ptr %14, null
  br i1 %.not16, label %17, label %15

15:                                               ; preds = %_ZN4llvm8dyn_castINS_12GlobalObjectENS_11GlobalAliasEEEDcPT0_.exit.thread
  %16 = tail call noundef ptr @_ZNK4llvm5Value12getValueNameEv(ptr noundef nonnull align 8 dereferenceable(24) %14) #16
  tail call void @_ZN4llvm5Value12setValueNameEPNS_14StringMapEntryIPS0_EE(ptr noundef nonnull align 8 dereferenceable(24) %7, ptr noundef %16) #16
  br label %20

17:                                               ; preds = %_ZN4llvm8dyn_castINS_12GlobalObjectENS_11GlobalAliasEEEDcPT0_.exit.thread
  %18 = getelementptr inbounds nuw i8, ptr %3, i64 32
  store i8 4, ptr %18, align 8
  %19 = getelementptr inbounds nuw i8, ptr %3, i64 33
  store i8 1, ptr %19, align 1
  store ptr %11, ptr %3, align 8
  call void @_ZN4llvm5Value7setNameERKNS_5TwineE(ptr noundef nonnull align 8 dereferenceable(24) %7, ptr noundef nonnull align 8 dereferenceable(34) %3) #16
  br label %20

20:                                               ; preds = %15, %17, %2
  ret i1 %.not
}